target datalayout = "e-m:e-p270:32:32-p271:32:32-p272:64:64-i64:64-i128:128-f80:128-n8:16:32:64-S128"
target triple = "x86_64-pc-linux-gnu"

%struct.gres_slurmd_conf = type { i32, i64, i32, ptr, ptr, ptr, ptr, ptr, ptr, ptr, i32 }

@.str.1 = private unnamed_addr constant [7 x i8] c"gres.c\00", align 1
@__func__._unpack_gres_slurmd_conf = private unnamed_addr constant [25 x i8] c"_unpack_gres_slurmd_conf\00", align 1

; Function Attrs: nounwind uwtable
define internal i32 @_unpack_gres_slurmd_conf(ptr noundef %0, i16 noundef zeroext %1, ptr noundef %2) #0 {
  %4 = alloca i32, align 4
  %5 = alloca ptr, align 8
  %6 = alloca i16, align 2
  %7 = alloca ptr, align 8
  %8 = alloca ptr, align 8
  %9 = alloca i32, align 4
  %10 = alloca i32, align 4
  %11 = alloca ptr, align 8
  %12 = alloca i32, align 4
  %13 = alloca i32, align 4
  %14 = alloca i32, align 4
  %15 = alloca i32, align 4
  %16 = alloca i32, align 4
  %17 = alloca i32, align 4
  %18 = alloca i32, align 4
  store ptr %0, ptr %5, align 8
  store i16 %1, ptr %6, align 2
  store ptr %2, ptr %7, align 8
  call void @llvm.lifetime.start.p0(i64 8, ptr %8) #11
  %19 = call ptr @slurm_xcalloc(i64 noundef 1, i64 noundef 88, i1 noundef zeroext true, i1 noundef zeroext false, ptr noundef @.str.1, i32 noundef 2454, ptr noundef @__func__._unpack_gres_slurmd_conf)
  store ptr %19, ptr %8, align 8
  br label %20

20:                                               ; preds = %3
  %21 = load ptr, ptr %8, align 8
  %22 = getelementptr inbounds nuw %struct.gres_slurmd_conf, ptr %21, i32 0, i32 0
  %23 = load ptr, ptr %7, align 8
  %24 = call i32 @unpack32(ptr noundef %22, ptr noundef %23)
  %25 = icmp ne i32 %24, 0
  br i1 %25, label %26, label %27

26:                                               ; preds = %20
  br label %205

27:                                               ; preds = %20
  br label %28

28:                                               ; preds = %27
  br label %29

29:                                               ; preds = %28
  br label %30

30:                                               ; preds = %29
  %31 = load ptr, ptr %8, align 8
  %32 = getelementptr inbounds nuw %struct.gres_slurmd_conf, ptr %31, i32 0, i32 1
  %33 = load ptr, ptr %7, align 8
  %34 = call i32 @unpack64(ptr noundef %32, ptr noundef %33)
  %35 = icmp ne i32 %34, 0
  br i1 %35, label %36, label %37

36:                                               ; preds = %30
  br label %205

37:                                               ; preds = %30
  br label %38

38:                                               ; preds = %37
  br label %39

39:                                               ; preds = %38
  br label %40

40:                                               ; preds = %39
  %41 = load ptr, ptr %8, align 8
  %42 = getelementptr inbounds nuw %struct.gres_slurmd_conf, ptr %41, i32 0, i32 2
  %43 = load ptr, ptr %7, align 8
  %44 = call i32 @unpack32(ptr noundef %42, ptr noundef %43)
  %45 = icmp ne i32 %44, 0
  br i1 %45, label %46, label %47

46:                                               ; preds = %40
  br label %205

47:                                               ; preds = %40
  br label %48

48:                                               ; preds = %47
  br label %49

49:                                               ; preds = %48
  br label %50

50:                                               ; preds = %49
  call void @llvm.lifetime.start.p0(i64 4, ptr %9) #11
  %51 = load ptr, ptr %8, align 8
  %52 = getelementptr inbounds nuw %struct.gres_slurmd_conf, ptr %51, i32 0, i32 3
  %53 = load ptr, ptr %7, align 8
  %54 = call i32 @unpackstr_xmalloc_chooser(ptr noundef %52, ptr noundef %9, ptr noundef %53)
  %55 = icmp ne i32 %54, 0
  br i1 %55, label %56, label %57

56:                                               ; preds = %50
  store i32 4, ptr %10, align 4
  br label %58

57:                                               ; preds = %50
  store i32 0, ptr %10, align 4
  br label %58

58:                                               ; preds = %56, %57
  call void @llvm.lifetime.end.p0(i64 4, ptr %9) #11
  %59 = load i32, ptr %10, align 4
  switch i32 %59, label %208 [
    i32 0, label %60
    i32 4, label %205
  ]

60:                                               ; preds = %58
  br label %61

61:                                               ; preds = %60
  br label %62

62:                                               ; preds = %61
  br label %63

63:                                               ; preds = %62
  call void @llvm.lifetime.start.p0(i64 8, ptr %11) #11
  store ptr null, ptr %11, align 8
  call void @llvm.lifetime.start.p0(i64 4, ptr %12) #11
  br label %64

64:                                               ; preds = %63
  %65 = load ptr, ptr %7, align 8
  %66 = call i32 @unpack32(ptr noundef %12, ptr noundef %65)
  %67 = icmp ne i32 %66, 0
  br i1 %67, label %68, label %69

68:                                               ; preds = %64
  store i32 4, ptr %10, align 4
  br label %123

69:                                               ; preds = %64
  br label %70

70:                                               ; preds = %69
  br label %71

71:                                               ; preds = %70
  %72 = load i32, ptr %12, align 4
  %73 = icmp ne i32 %72, -2
  br i1 %73, label %74, label %119

74:                                               ; preds = %71
  br label %75

75:                                               ; preds = %74
  call void @llvm.lifetime.start.p0(i64 4, ptr %13) #11
  %76 = load ptr, ptr %7, align 8
  %77 = call i32 @unpackstr_xmalloc_chooser(ptr noundef %11, ptr noundef %13, ptr noundef %76)
  %78 = icmp ne i32 %77, 0
  br i1 %78, label %79, label %80

79:                                               ; preds = %75
  store i32 4, ptr %10, align 4
  br label %81

80:                                               ; preds = %75
  store i32 0, ptr %10, align 4
  br label %81

81:                                               ; preds = %79, %80
  call void @llvm.lifetime.end.p0(i64 4, ptr %13) #11
  %82 = load i32, ptr %10, align 4
  switch i32 %82, label %123 [
    i32 0, label %83
  ]

83:                                               ; preds = %81
  br label %84

84:                                               ; preds = %83
  br label %85

85:                                               ; preds = %84
  %86 = load i32, ptr %12, align 4
  %87 = icmp ne i32 %86, 0
  br i1 %87, label %88, label %115

88:                                               ; preds = %85
  %89 = load i32, ptr %12, align 4
  %90 = zext i32 %89 to i64
  %91 = call ptr @bit_alloc(i64 noundef %90)
  %92 = load ptr, ptr %8, align 8
  %93 = getelementptr inbounds nuw %struct.gres_slurmd_conf, ptr %92, i32 0, i32 4
  store ptr %91, ptr %93, align 8
  %94 = load ptr, ptr %8, align 8
  %95 = getelementptr inbounds nuw %struct.gres_slurmd_conf, ptr %94, i32 0, i32 4
  %96 = load ptr, ptr %95, align 8
  %97 = load ptr, ptr %11, align 8
  %98 = call i32 @bit_unfmt_hexmask(ptr noundef %96, ptr noundef %97)
  %99 = icmp ne i32 %98, 0
  br i1 %99, label %100, label %114

100:                                              ; preds = %88
  br label %101

101:                                              ; preds = %100
  %102 = load ptr, ptr %8, align 8
  %103 = getelementptr inbounds nuw %struct.gres_slurmd_conf, ptr %102, i32 0, i32 4
  %104 = load ptr, ptr %103, align 8
  %105 = icmp ne ptr %104, null
  br i1 %105, label %106, label %109

106:                                              ; preds = %101
  %107 = load ptr, ptr %8, align 8
  %108 = getelementptr inbounds nuw %struct.gres_slurmd_conf, ptr %107, i32 0, i32 4
  call void @slurm_bit_free(ptr noundef %108)
  br label %109

109:                                              ; preds = %106, %101
  %110 = load ptr, ptr %8, align 8
  %111 = getelementptr inbounds nuw %struct.gres_slurmd_conf, ptr %110, i32 0, i32 4
  store ptr null, ptr %111, align 8
  br label %112

112:                                              ; preds = %109
  br label %113

113:                                              ; preds = %112
  call void @slurm_xfree(ptr noundef %11)
  store i32 4, ptr %10, align 4
  br label %123

114:                                              ; preds = %88
  br label %118

115:                                              ; preds = %85
  %116 = load ptr, ptr %8, align 8
  %117 = getelementptr inbounds nuw %struct.gres_slurmd_conf, ptr %116, i32 0, i32 4
  store ptr null, ptr %117, align 8
  br label %118

118:                                              ; preds = %115, %114
  call void @slurm_xfree(ptr noundef %11)
  br label %122

119:                                              ; preds = %71
  %120 = load ptr, ptr %8, align 8
  %121 = getelementptr inbounds nuw %struct.gres_slurmd_conf, ptr %120, i32 0, i32 4
  store ptr null, ptr %121, align 8
  br label %122

122:                                              ; preds = %119, %118
  store i32 0, ptr %10, align 4
  br label %123

123:                                              ; preds = %113, %68, %122, %81
  call void @llvm.lifetime.end.p0(i64 4, ptr %12) #11
  call void @llvm.lifetime.end.p0(i64 8, ptr %11) #11
  %124 = load i32, ptr %10, align 4
  switch i32 %124, label %208 [
    i32 0, label %125
    i32 4, label %205
  ]

125:                                              ; preds = %123
  br label %126

126:                                              ; preds = %125
  br label %127

127:                                              ; preds = %126
  br label %128

128:                                              ; preds = %127
  call void @llvm.lifetime.start.p0(i64 4, ptr %14) #11
  %129 = load ptr, ptr %8, align 8
  %130 = getelementptr inbounds nuw %struct.gres_slurmd_conf, ptr %129, i32 0, i32 5
  %131 = load ptr, ptr %7, align 8
  %132 = call i32 @unpackstr_xmalloc_chooser(ptr noundef %130, ptr noundef %14, ptr noundef %131)
  %133 = icmp ne i32 %132, 0
  br i1 %133, label %134, label %135

134:                                              ; preds = %128
  store i32 4, ptr %10, align 4
  br label %136

135:                                              ; preds = %128
  store i32 0, ptr %10, align 4
  br label %136

136:                                              ; preds = %134, %135
  call void @llvm.lifetime.end.p0(i64 4, ptr %14) #11
  %137 = load i32, ptr %10, align 4
  switch i32 %137, label %208 [
    i32 0, label %138
    i32 4, label %205
  ]

138:                                              ; preds = %136
  br label %139

139:                                              ; preds = %138
  br label %140

140:                                              ; preds = %139
  br label %141

141:                                              ; preds = %140
  call void @llvm.lifetime.start.p0(i64 4, ptr %15) #11
  %142 = load ptr, ptr %8, align 8
  %143 = getelementptr inbounds nuw %struct.gres_slurmd_conf, ptr %142, i32 0, i32 6
  %144 = load ptr, ptr %7, align 8
  %145 = call i32 @unpackstr_xmalloc_chooser(ptr noundef %143, ptr noundef %15, ptr noundef %144)
  %146 = icmp ne i32 %145, 0
  br i1 %146, label %147, label %148

147:                                              ; preds = %141
  store i32 4, ptr %10, align 4
  br label %149

148:                                              ; preds = %141
  store i32 0, ptr %10, align 4
  br label %149

149:                                              ; preds = %147, %148
  call void @llvm.lifetime.end.p0(i64 4, ptr %15) #11
  %150 = load i32, ptr %10, align 4
  switch i32 %150, label %208 [
    i32 0, label %151
    i32 4, label %205
  ]

151:                                              ; preds = %149
  br label %152

152:                                              ; preds = %151
  br label %153

153:                                              ; preds = %152
  br label %154

154:                                              ; preds = %153
  call void @llvm.lifetime.start.p0(i64 4, ptr %16) #11
  %155 = load ptr, ptr %8, align 8
  %156 = getelementptr inbounds nuw %struct.gres_slurmd_conf, ptr %155, i32 0, i32 7
  %157 = load ptr, ptr %7, align 8
  %158 = call i32 @unpackstr_xmalloc_chooser(ptr noundef %156, ptr noundef %16, ptr noundef %157)
  %159 = icmp ne i32 %158, 0
  br i1 %159, label %160, label %161

160:                                              ; preds = %154
  store i32 4, ptr %10, align 4
  br label %162

161:                                              ; preds = %154
  store i32 0, ptr %10, align 4
  br label %162

162:                                              ; preds = %160, %161
  call void @llvm.lifetime.end.p0(i64 4, ptr %16) #11
  %163 = load i32, ptr %10, align 4
  switch i32 %163, label %208 [
    i32 0, label %164
    i32 4, label %205
  ]

164:                                              ; preds = %162
  br label %165

165:                                              ; preds = %164
  br label %166

166:                                              ; preds = %165
  br label %167

167:                                              ; preds = %166
  call void @llvm.lifetime.start.p0(i64 4, ptr %17) #11
  %168 = load ptr, ptr %8, align 8
  %169 = getelementptr inbounds nuw %struct.gres_slurmd_conf, ptr %168, i32 0, i32 8
  %170 = load ptr, ptr %7, align 8
  %171 = call i32 @unpackstr_xmalloc_chooser(ptr noundef %169, ptr noundef %17, ptr noundef %170)
  %172 = icmp ne i32 %171, 0
  br i1 %172, label %173, label %174

173:                                              ; preds = %167
  store i32 4, ptr %10, align 4
  br label %175

174:                                              ; preds = %167
  store i32 0, ptr %10, align 4
  br label %175

175:                                              ; preds = %173, %174
  call void @llvm.lifetime.end.p0(i64 4, ptr %17) #11
  %176 = load i32, ptr %10, align 4
  switch i32 %176, label %208 [
    i32 0, label %177
    i32 4, label %205
  ]

177:                                              ; preds = %175
  br label %178

178:                                              ; preds = %177
  br label %179

179:                                              ; preds = %178
  br label %180

180:                                              ; preds = %179
  call void @llvm.lifetime.start.p0(i64 4, ptr %18) #11
  %181 = load ptr, ptr %8, align 8
  %182 = getelementptr inbounds nuw %struct.gres_slurmd_conf, ptr %181, i32 0, i32 9
  %183 = load ptr, ptr %7, align 8
  %184 = call i32 @unpackstr_xmalloc_chooser(ptr noundef %182, ptr noundef %18, ptr noundef %183)
  %185 = icmp ne i32 %184, 0
  br i1 %185, label %186, label %187

186:                                              ; preds = %180
  store i32 4, ptr %10, align 4
  br label %188

187:                                              ; preds = %180
  store i32 0, ptr %10, align 4
  br label %188

188:                                              ; preds = %186, %187
  call void @llvm.lifetime.end.p0(i64 4, ptr %18) #11
  %189 = load i32, ptr %10, align 4
  switch i32 %189, label %208 [
    i32 0, label %190
    i32 4, label %205
  ]

190:                                              ; preds = %188
  br label %191

191:                                              ; preds = %190
  br label %192

192:                                              ; preds = %191
  br label %193

193:                                              ; preds = %192
  %194 = load ptr, ptr %8, align 8
  %195 = getelementptr inbounds nuw %struct.gres_slurmd_conf, ptr %194, i32 0, i32 10
  %196 = load ptr, ptr %7, align 8
  %197 = call i32 @unpack32(ptr noundef %195, ptr noundef %196)
  %198 = icmp ne i32 %197, 0
  br i1 %198, label %199, label %200

199:                                              ; preds = %193
  br label %205

200:                                              ; preds = %193
  br label %201

201:                                              ; preds = %200
  br label %202

202:                                              ; preds = %201
  %203 = load ptr, ptr %8, align 8
  %204 = load ptr, ptr %5, align 8
  store ptr %203, ptr %204, align 8
  store i32 0, ptr %4, align 4
  store i32 1, ptr %10, align 4
  br label %208

205:                                              ; preds = %188, %175, %162, %149, %136, %123, %58, %199, %46, %36, %26
  %206 = load ptr, ptr %8, align 8
  call void @destroy_gres_slurmd_conf(ptr noundef %206)
  %207 = load ptr, ptr %5, align 8
  store ptr null, ptr %207, align 8
  store i32 -1, ptr %4, align 4
  store i32 1, ptr %10, align 4
  br label %208

208:                                              ; preds = %205, %202, %188, %175, %162, %149, %136, %123, %58
  call void @llvm.lifetime.end.p0(i64 8, ptr %8) #11
  %209 = load i32, ptr %4, align 4
  ret i32 %209
}