; Function Attrs: nounwind uwtable
define internal range(i32 -1, 1) i32 @_unpack_gres_slurmd_conf(ptr noundef writeonly captures(none) initializes((0, 8)) %0, i16 zeroext %1, ptr noundef %2) #2 {
  %4 = alloca i32, align 4
  %5 = alloca ptr, align 8
  %6 = alloca i32, align 4
  %7 = alloca i32, align 4
  %8 = alloca i32, align 4
  %9 = alloca i32, align 4
  %10 = alloca i32, align 4
  %11 = alloca i32, align 4
  %12 = alloca i32, align 4
  %13 = tail call ptr @slurm_xcalloc(i64 noundef 1, i64 noundef 88, i1 noundef zeroext true, i1 noundef zeroext false, ptr noundef nonnull @.str.1, i32 noundef 2454, ptr noundef nonnull @__func__._unpack_gres_slurmd_conf) #28
  %14 = tail call i32 @unpack32(ptr noundef %13, ptr noundef %2) #28
  %.not = icmp eq i32 %14, 0
  br i1 %.not, label %15, label %64

15:                                               ; preds = %3
  %16 = getelementptr inbounds nuw i8, ptr %13, i64 8
  %17 = tail call i32 @unpack64(ptr noundef nonnull %16, ptr noundef %2) #28
  %.not43 = icmp eq i32 %17, 0
  br i1 %.not43, label %18, label %64

18:                                               ; preds = %15
  %19 = getelementptr inbounds nuw i8, ptr %13, i64 16
  %20 = tail call i32 @unpack32(ptr noundef nonnull %19, ptr noundef %2) #28
  %.not44 = icmp eq i32 %20, 0
  br i1 %.not44, label %21, label %64

21:                                               ; preds = %18
  call void @llvm.lifetime.start.p0(i64 4, ptr nonnull %4) #28
  %22 = getelementptr inbounds nuw i8, ptr %13, i64 24
  %23 = call i32 @unpackstr_xmalloc_chooser(ptr noundef nonnull %22, ptr noundef nonnull %4, ptr noundef %2) #28
  %.not45 = icmp eq i32 %23, 0
  call void @llvm.lifetime.end.p0(i64 4, ptr nonnull %4) #28
  br i1 %.not45, label %24, label %64

24:                                               ; preds = %21
  call void @llvm.lifetime.start.p0(i64 8, ptr nonnull %5) #28
  store ptr null, ptr %5, align 8
  call void @llvm.lifetime.start.p0(i64 4, ptr nonnull %6) #28
  %25 = call i32 @unpack32(ptr noundef nonnull %6, ptr noundef %2) #28
  %.not46 = icmp eq i32 %25, 0
  br i1 %.not46, label %26, label %.sink.split

26:                                               ; preds = %24
  %27 = load i32, ptr %6, align 4
  %.not47 = icmp eq i32 %27, -2
  br i1 %.not47, label %45, label %28

28:                                               ; preds = %26
  call void @llvm.lifetime.start.p0(i64 4, ptr nonnull %7) #28
  %29 = call i32 @unpackstr_xmalloc_chooser(ptr noundef nonnull %5, ptr noundef nonnull %7, ptr noundef %2) #28
  %.not48 = icmp eq i32 %29, 0
  call void @llvm.lifetime.end.p0(i64 4, ptr nonnull %7) #28
  br i1 %.not48, label %30, label %.sink.split

30:                                               ; preds = %28
  %31 = load i32, ptr %6, align 4
  %.not49 = icmp eq i32 %31, 0
  br i1 %.not49, label %42, label %32

32:                                               ; preds = %30
  %33 = zext i32 %31 to i64
  %34 = call ptr @bit_alloc(i64 noundef %33) #28
  %35 = getelementptr inbounds nuw i8, ptr %13, i64 32
  store ptr %34, ptr %35, align 8
  %36 = load ptr, ptr %5, align 8
  %37 = call i32 @bit_unfmt_hexmask(ptr noundef %34, ptr noundef %36) #28
  %.not50 = icmp eq i32 %37, 0
  br i1 %.not50, label %44, label %38

38:                                               ; preds = %32
  %39 = load ptr, ptr %35, align 8
  %.not51 = icmp eq ptr %39, null
  br i1 %.not51, label %41, label %40

40:                                               ; preds = %38
  call void @slurm_bit_free(ptr noundef nonnull %35) #28
  br label %41

41:                                               ; preds = %40, %38
  store ptr null, ptr %35, align 8
  call void @slurm_xfree(ptr noundef nonnull %5) #28
  br label %.sink.split

42:                                               ; preds = %30
  %43 = getelementptr inbounds nuw i8, ptr %13, i64 32
  store ptr null, ptr %43, align 8
  br label %44

44:                                               ; preds = %32, %42
  call void @slurm_xfree(ptr noundef nonnull %5) #28
  br label %.thread

45:                                               ; preds = %26
  %46 = getelementptr inbounds nuw i8, ptr %13, i64 32
  store ptr null, ptr %46, align 8
  br label %.thread

.thread:                                          ; preds = %45, %44
  call void @llvm.lifetime.end.p0(i64 4, ptr nonnull %6) #28
  call void @llvm.lifetime.end.p0(i64 8, ptr nonnull %5) #28
  call void @llvm.lifetime.start.p0(i64 4, ptr nonnull %8) #28
  %47 = getelementptr inbounds nuw i8, ptr %13, i64 40
  %48 = call i32 @unpackstr_xmalloc_chooser(ptr noundef nonnull %47, ptr noundef nonnull %8, ptr noundef %2) #28
  %.not52 = icmp eq i32 %48, 0
  call void @llvm.lifetime.end.p0(i64 4, ptr nonnull %8) #28
  br i1 %.not52, label %49, label %64

49:                                               ; preds = %.thread
  call void @llvm.lifetime.start.p0(i64 4, ptr nonnull %9) #28
  %50 = getelementptr inbounds nuw i8, ptr %13, i64 48
  %51 = call i32 @unpackstr_xmalloc_chooser(ptr noundef nonnull %50, ptr noundef nonnull %9, ptr noundef %2) #28
  %.not53 = icmp eq i32 %51, 0
  call void @llvm.lifetime.end.p0(i64 4, ptr nonnull %9) #28
  br i1 %.not53, label %52, label %64

52:                                               ; preds = %49
  call void @llvm.lifetime.start.p0(i64 4, ptr nonnull %10) #28
  %53 = getelementptr inbounds nuw i8, ptr %13, i64 56
  %54 = call i32 @unpackstr_xmalloc_chooser(ptr noundef nonnull %53, ptr noundef nonnull %10, ptr noundef %2) #28
  %.not54 = icmp eq i32 %54, 0
  call void @llvm.lifetime.end.p0(i64 4, ptr nonnull %10) #28
  br i1 %.not54, label %55, label %64

55:                                               ; preds = %52
  call void @llvm.lifetime.start.p0(i64 4, ptr nonnull %11) #28
  %56 = getelementptr inbounds nuw i8, ptr %13, i64 64
  %57 = call i32 @unpackstr_xmalloc_chooser(ptr noundef nonnull %56, ptr noundef nonnull %11, ptr noundef %2) #28
  %.not55 = icmp eq i32 %57, 0
  call void @llvm.lifetime.end.p0(i64 4, ptr nonnull %11) #28
  br i1 %.not55, label %58, label %64

58:                                               ; preds = %55
  call void @llvm.lifetime.start.p0(i64 4, ptr nonnull %12) #28
  %59 = getelementptr inbounds nuw i8, ptr %13, i64 72
  %60 = call i32 @unpackstr_xmalloc_chooser(ptr noundef nonnull %59, ptr noundef nonnull %12, ptr noundef %2) #28
  %.not56 = icmp eq i32 %60, 0
  call void @llvm.lifetime.end.p0(i64 4, ptr nonnull %12) #28
  br i1 %.not56, label %61, label %64

61:                                               ; preds = %58
  %62 = getelementptr inbounds nuw i8, ptr %13, i64 80
  %63 = call i32 @unpack32(ptr noundef nonnull %62, ptr noundef %2) #28
  %.not57 = icmp eq i32 %63, 0
  br i1 %.not57, label %65, label %64

.sink.split:                                      ; preds = %28, %24, %41
  call void @llvm.lifetime.end.p0(i64 4, ptr nonnull %6) #28
  call void @llvm.lifetime.end.p0(i64 8, ptr nonnull %5) #28
  br label %64

64:                                               ; preds = %.sink.split, %58, %55, %52, %49, %.thread, %21, %61, %18, %15, %3
  call void @destroy_gres_slurmd_conf(ptr noundef %13)
  br label %65

65:                                               ; preds = %61, %64
  %storemerge = phi ptr [ null, %64 ], [ %13, %61 ]
  %.041 = phi i32 [ -1, %64 ], [ 0, %61 ]
  store ptr %storemerge, ptr %0, align 8
  ret i32 %.041
}